target datalayout = "e-m:e-p270:32:32-p271:32:32-p272:64:64-i64:64-i128:128-f80:128-n8:16:32:64-S128"
target triple = "x86_64-pc-linux-gnu"

@.str.1567 = private unnamed_addr constant [16 x i8] c"%s, %s, %s (%d)\00", align 1
@.str.1568 = private unnamed_addr constant [5 x i8] c"true\00", align 1
@.str.1569 = private unnamed_addr constant [6 x i8] c"false\00", align 1

; Function Attrs: nounwind uwtable
define internal void @adc_bitmask_base(ptr noundef %0, i8 noundef zeroext %1) #0 {
  %3 = alloca ptr, align 8
  %4 = alloca i8, align 1
  store ptr %0, ptr %3, align 8
  store i8 %1, ptr %4, align 1
  %5 = load ptr, ptr %3, align 8
  %6 = load i8, ptr %4, align 1
  %7 = zext i8 %6 to i32
  %8 = and i32 %7, 1
  %9 = icmp ne i32 %8, 0
  %10 = select i1 %9, ptr @.str.1568, ptr @.str.1569
  %11 = load i8, ptr %4, align 1
  %12 = zext i8 %11 to i32
  %13 = and i32 %12, 2
  %14 = icmp ne i32 %13, 0
  %15 = select i1 %14, ptr @.str.1568, ptr @.str.1569
  %16 = load i8, ptr %4, align 1
  %17 = zext i8 %16 to i32
  %18 = and i32 %17, 4
  %19 = icmp ne i32 %18, 0
  %20 = select i1 %19, ptr @.str.1568, ptr @.str.1569
  %21 = load i8, ptr %4, align 1
  %22 = zext i8 %21 to i32
  %23 = call i32 (ptr, i64, ptr, ...) @snprintf(ptr noundef %5, i64 noundef 240, ptr noundef @.str.1567, ptr noundef %10, ptr noundef %15, ptr noundef %20, i32 noundef %22) #3
  ret void
}