; Function Attrs: nofree nounwind uwtable
define internal void @adc_bitmask_base(ptr noundef writeonly captures(none) %0, i8 noundef zeroext %1) #1 {
  %3 = zext i8 %1 to i32
  %4 = and i32 %3, 1
  %.not = icmp eq i32 %4, 0
  %5 = select i1 %.not, ptr @.str.1569, ptr @.str.1568
  %6 = and i32 %3, 2
  %.not4 = icmp eq i32 %6, 0
  %7 = select i1 %.not4, ptr @.str.1569, ptr @.str.1568
  %8 = and i32 %3, 4
  %.not5 = icmp eq i32 %8, 0
  %9 = select i1 %.not5, ptr @.str.1569, ptr @.str.1568
  %10 = tail call i32 (ptr, i64, ptr, ...) @snprintf(ptr noundef nonnull dereferenceable(1) %0, i64 noundef 240, ptr noundef nonnull @.str.1567, ptr noundef nonnull %5, ptr noundef nonnull %7, ptr noundef nonnull %9, i32 noundef %3) #5
  ret void
}